target datalayout = "e-m:e-p270:32:32-p271:32:32-p272:64:64-i64:64-i128:128-f80:128-n8:16:32:64-S128"
target triple = "x86_64-pc-linux-gnu"

%struct.Vec_Int_t_ = type { i32, i32, ptr }
%struct.Vec_Wrd_t_ = type { i32, i32, ptr }

; Function Attrs: inlinehint nounwind uwtable
define internal i32 @Abc_TtCountOnes(i64 noundef %0) #2 {
  %2 = alloca i64, align 8
  store i64 %0, ptr %2, align 8, !tbaa !65
  %3 = load i64, ptr %2, align 8, !tbaa !65
  %4 = load i64, ptr %2, align 8, !tbaa !65
  %5 = lshr i64 %4, 1
  %6 = and i64 %5, 6148914691236517205
  %7 = sub i64 %3, %6
  store i64 %7, ptr %2, align 8, !tbaa !65
  %8 = load i64, ptr %2, align 8, !tbaa !65
  %9 = and i64 %8, 3689348814741910323
  %10 = load i64, ptr %2, align 8, !tbaa !65
  %11 = lshr i64 %10, 2
  %12 = and i64 %11, 3689348814741910323
  %13 = add i64 %9, %12
  store i64 %13, ptr %2, align 8, !tbaa !65
  %14 = load i64, ptr %2, align 8, !tbaa !65
  %15 = load i64, ptr %2, align 8, !tbaa !65
  %16 = lshr i64 %15, 4
  %17 = add i64 %14, %16
  %18 = and i64 %17, 1085102592571150095
  store i64 %18, ptr %2, align 8, !tbaa !65
  %19 = load i64, ptr %2, align 8, !tbaa !65
  %20 = load i64, ptr %2, align 8, !tbaa !65
  %21 = lshr i64 %20, 8
  %22 = add i64 %19, %21
  store i64 %22, ptr %2, align 8, !tbaa !65
  %23 = load i64, ptr %2, align 8, !tbaa !65
  %24 = load i64, ptr %2, align 8, !tbaa !65
  %25 = lshr i64 %24, 16
  %26 = add i64 %23, %25
  store i64 %26, ptr %2, align 8, !tbaa !65
  %27 = load i64, ptr %2, align 8, !tbaa !65
  %28 = load i64, ptr %2, align 8, !tbaa !65
  %29 = lshr i64 %28, 32
  %30 = add i64 %27, %29
  store i64 %30, ptr %2, align 8, !tbaa !65
  %31 = load i64, ptr %2, align 8, !tbaa !65
  %32 = and i64 %31, 255
  %33 = trunc i64 %32 to i32
  ret i32 %33
}

; Function Attrs: inlinehint nounwind uwtable
define internal void @Vec_IntGrow(ptr noundef %0, i32 noundef %1) #2 {
  %3 = alloca ptr, align 8
  %4 = alloca i32, align 4
  store ptr %0, ptr %3, align 8, !tbaa !12
  store i32 %1, ptr %4, align 4, !tbaa !10
  %5 = load ptr, ptr %3, align 8, !tbaa !12
  %6 = getelementptr inbounds nuw %struct.Vec_Int_t_, ptr %5, i32 0, i32 0
  %7 = load i32, ptr %6, align 8, !tbaa !17
  %8 = load i32, ptr %4, align 4, !tbaa !10
  %9 = icmp sge i32 %7, %8
  br i1 %9, label %10, label %11

10:                                               ; preds = %2
  br label %36

11:                                               ; preds = %2
  %12 = load ptr, ptr %3, align 8, !tbaa !12
  %13 = getelementptr inbounds nuw %struct.Vec_Int_t_, ptr %12, i32 0, i32 2
  %14 = load ptr, ptr %13, align 8, !tbaa !18
  %15 = icmp ne ptr %14, null
  br i1 %15, label %16, label %24

16:                                               ; preds = %11
  %17 = load ptr, ptr %3, align 8, !tbaa !12
  %18 = getelementptr inbounds nuw %struct.Vec_Int_t_, ptr %17, i32 0, i32 2
  %19 = load ptr, ptr %18, align 8, !tbaa !18
  %20 = load i32, ptr %4, align 4, !tbaa !10
  %21 = sext i32 %20 to i64
  %22 = mul i64 4, %21
  %23 = call ptr @realloc(ptr noundef %19, i64 noundef %22) #17
  br label %29

24:                                               ; preds = %11
  %25 = load i32, ptr %4, align 4, !tbaa !10
  %26 = sext i32 %25 to i64
  %27 = mul i64 4, %26
  %28 = call noalias ptr @malloc(i64 noundef %27) #15
  br label %29

29:                                               ; preds = %24, %16
  %30 = phi ptr [ %23, %16 ], [ %28, %24 ]
  %31 = load ptr, ptr %3, align 8, !tbaa !12
  %32 = getelementptr inbounds nuw %struct.Vec_Int_t_, ptr %31, i32 0, i32 2
  store ptr %30, ptr %32, align 8, !tbaa !18
  %33 = load i32, ptr %4, align 4, !tbaa !10
  %34 = load ptr, ptr %3, align 8, !tbaa !12
  %35 = getelementptr inbounds nuw %struct.Vec_Int_t_, ptr %34, i32 0, i32 0
  store i32 %33, ptr %35, align 8, !tbaa !17
  br label %36

36:                                               ; preds = %29, %10
  ret void
}

; Function Attrs: inlinehint nounwind uwtable
define internal i32 @Abc_TtCountOnes2(i64 noundef %0) #2 {
  %2 = alloca i64, align 8
  store i64 %0, ptr %2, align 8, !tbaa !65
  %3 = load i64, ptr %2, align 8, !tbaa !65
  %4 = icmp ne i64 %3, 0
  br i1 %4, label %5, label %8

5:                                                ; preds = %1
  %6 = load i64, ptr %2, align 8, !tbaa !65
  %7 = call i32 @Abc_TtCountOnes(i64 noundef %6)
  br label %9

8:                                                ; preds = %1
  br label %9

9:                                                ; preds = %8, %5
  %10 = phi i32 [ %7, %5 ], [ 0, %8 ]
  ret i32 %10
}

; Function Attrs: inlinehint nounwind uwtable
define internal void @Vec_IntPush(ptr noundef %0, i32 noundef %1) #2 {
  %3 = alloca ptr, align 8
  %4 = alloca i32, align 4
  store ptr %0, ptr %3, align 8, !tbaa !12
  store i32 %1, ptr %4, align 4, !tbaa !10
  %5 = load ptr, ptr %3, align 8, !tbaa !12
  %6 = getelementptr inbounds nuw %struct.Vec_Int_t_, ptr %5, i32 0, i32 1
  %7 = load i32, ptr %6, align 4, !tbaa !14
  %8 = load ptr, ptr %3, align 8, !tbaa !12
  %9 = getelementptr inbounds nuw %struct.Vec_Int_t_, ptr %8, i32 0, i32 0
  %10 = load i32, ptr %9, align 8, !tbaa !17
  %11 = icmp eq i32 %7, %10
  br i1 %11, label %12, label %26

12:                                               ; preds = %2
  %13 = load ptr, ptr %3, align 8, !tbaa !12
  %14 = getelementptr inbounds nuw %struct.Vec_Int_t_, ptr %13, i32 0, i32 0
  %15 = load i32, ptr %14, align 8, !tbaa !17
  %16 = icmp slt i32 %15, 16
  br i1 %16, label %17, label %19

17:                                               ; preds = %12
  %18 = load ptr, ptr %3, align 8, !tbaa !12
  call void @Vec_IntGrow(ptr noundef %18, i32 noundef 16)
  br label %25

19:                                               ; preds = %12
  %20 = load ptr, ptr %3, align 8, !tbaa !12
  %21 = load ptr, ptr %3, align 8, !tbaa !12
  %22 = getelementptr inbounds nuw %struct.Vec_Int_t_, ptr %21, i32 0, i32 0
  %23 = load i32, ptr %22, align 8, !tbaa !17
  %24 = mul nsw i32 2, %23
  call void @Vec_IntGrow(ptr noundef %20, i32 noundef %24)
  br label %25

25:                                               ; preds = %19, %17
  br label %26

26:                                               ; preds = %25, %2
  %27 = load i32, ptr %4, align 4, !tbaa !10
  %28 = load ptr, ptr %3, align 8, !tbaa !12
  %29 = getelementptr inbounds nuw %struct.Vec_Int_t_, ptr %28, i32 0, i32 2
  %30 = load ptr, ptr %29, align 8, !tbaa !18
  %31 = load ptr, ptr %3, align 8, !tbaa !12
  %32 = getelementptr inbounds nuw %struct.Vec_Int_t_, ptr %31, i32 0, i32 1
  %33 = load i32, ptr %32, align 4, !tbaa !14
  %34 = add nsw i32 %33, 1
  store i32 %34, ptr %32, align 4, !tbaa !14
  %35 = sext i32 %33 to i64
  %36 = getelementptr inbounds i32, ptr %30, i64 %35
  store i32 %27, ptr %36, align 4, !tbaa !10
  ret void
}

; Function Attrs: inlinehint nounwind uwtable
define internal i32 @Abc_TtCountOnesVec(ptr noundef %0, i32 noundef %1) #2 {
  %3 = alloca ptr, align 8
  %4 = alloca i32, align 4
  %5 = alloca i32, align 4
  %6 = alloca i32, align 4
  store ptr %0, ptr %3, align 8, !tbaa !76
  store i32 %1, ptr %4, align 4, !tbaa !10
  call void @llvm.lifetime.start.p0(i64 4, ptr %5) #14
  call void @llvm.lifetime.start.p0(i64 4, ptr %6) #14
  store i32 0, ptr %6, align 4, !tbaa !10
  store i32 0, ptr %5, align 4, !tbaa !10
  br label %7

7:                                                ; preds = %20, %2
  %8 = load i32, ptr %5, align 4, !tbaa !10
  %9 = load i32, ptr %4, align 4, !tbaa !10
  %10 = icmp slt i32 %8, %9
  br i1 %10, label %11, label %23

11:                                               ; preds = %7
  %12 = load ptr, ptr %3, align 8, !tbaa !76
  %13 = load i32, ptr %5, align 4, !tbaa !10
  %14 = sext i32 %13 to i64
  %15 = getelementptr inbounds i64, ptr %12, i64 %14
  %16 = load i64, ptr %15, align 8, !tbaa !65
  %17 = call i32 @Abc_TtCountOnes2(i64 noundef %16)
  %18 = load i32, ptr %6, align 4, !tbaa !10
  %19 = add nsw i32 %18, %17
  store i32 %19, ptr %6, align 4, !tbaa !10
  br label %20

20:                                               ; preds = %11
  %21 = load i32, ptr %5, align 4, !tbaa !10
  %22 = add nsw i32 %21, 1
  store i32 %22, ptr %5, align 4, !tbaa !10
  br label %7, !llvm.loop !158

23:                                               ; preds = %7
  %24 = load i32, ptr %6, align 4, !tbaa !10
  call void @llvm.lifetime.end.p0(i64 4, ptr %6) #14
  call void @llvm.lifetime.end.p0(i64 4, ptr %5) #14
  ret i32 %24
}

; Function Attrs: inlinehint nounwind uwtable
define internal ptr @Vec_WrdEntryP(ptr noundef %0, i32 noundef %1) #2 {
  %3 = alloca ptr, align 8
  %4 = alloca i32, align 4
  store ptr %0, ptr %3, align 8, !tbaa !85
  store i32 %1, ptr %4, align 4, !tbaa !10
  %5 = load ptr, ptr %3, align 8, !tbaa !85
  %6 = getelementptr inbounds nuw %struct.Vec_Wrd_t_, ptr %5, i32 0, i32 2
  %7 = load ptr, ptr %6, align 8, !tbaa !89
  %8 = load i32, ptr %4, align 4, !tbaa !10
  %9 = sext i32 %8 to i64
  %10 = getelementptr inbounds i64, ptr %7, i64 %9
  ret ptr %10
}

; Function Attrs: inlinehint nounwind uwtable
define internal void @Vec_IntClear(ptr noundef %0) #2 {
  %2 = alloca ptr, align 8
  store ptr %0, ptr %2, align 8, !tbaa !12
  %3 = load ptr, ptr %2, align 8, !tbaa !12
  %4 = getelementptr inbounds nuw %struct.Vec_Int_t_, ptr %3, i32 0, i32 1
  store i32 0, ptr %4, align 4, !tbaa !14
  ret void
}

; Function Attrs: inlinehint nounwind uwtable
define internal i32 @Vec_WrdSize(ptr noundef %0) #2 {
  %2 = alloca ptr, align 8
  store ptr %0, ptr %2, align 8, !tbaa !85
  %3 = load ptr, ptr %2, align 8, !tbaa !85
  %4 = getelementptr inbounds nuw %struct.Vec_Wrd_t_, ptr %3, i32 0, i32 1
  %5 = load i32, ptr %4, align 4, !tbaa !86
  ret i32 %5
}

; Function Attrs: nounwind uwtable
define void @Gia_ManDeriveCounts(ptr noundef %0, i32 noundef %1, ptr noundef %2) #0 {
  %4 = alloca ptr, align 8
  %5 = alloca i32, align 4
  %6 = alloca ptr, align 8
  %7 = alloca i32, align 4
  %8 = alloca i32, align 4
  store ptr %0, ptr %4, align 8, !tbaa !85
  store i32 %1, ptr %5, align 4, !tbaa !10
  store ptr %2, ptr %6, align 8, !tbaa !12
  call void @llvm.lifetime.start.p0(i64 4, ptr %7) #14
  call void @llvm.lifetime.start.p0(i64 4, ptr %8) #14
  %9 = load ptr, ptr %4, align 8, !tbaa !85
  %10 = call i32 @Vec_WrdSize(ptr noundef %9)
  %11 = load i32, ptr %5, align 4, !tbaa !10
  %12 = sdiv i32 %10, %11
  %13 = sdiv i32 %12, 2
  store i32 %13, ptr %8, align 4, !tbaa !10
  %14 = load ptr, ptr %6, align 8, !tbaa !12
  call void @Vec_IntClear(ptr noundef %14)
  store i32 0, ptr %7, align 4, !tbaa !10
  br label %15

15:                                               ; preds = %29, %3
  %16 = load i32, ptr %7, align 4, !tbaa !10
  %17 = load i32, ptr %8, align 4, !tbaa !10
  %18 = mul nsw i32 2, %17
  %19 = icmp slt i32 %16, %18
  br i1 %19, label %20, label %32

20:                                               ; preds = %15
  %21 = load ptr, ptr %6, align 8, !tbaa !12
  %22 = load ptr, ptr %4, align 8, !tbaa !85
  %23 = load i32, ptr %7, align 4, !tbaa !10
  %24 = load i32, ptr %5, align 4, !tbaa !10
  %25 = mul nsw i32 %23, %24
  %26 = call ptr @Vec_WrdEntryP(ptr noundef %22, i32 noundef %25)
  %27 = load i32, ptr %5, align 4, !tbaa !10
  %28 = call i32 @Abc_TtCountOnesVec(ptr noundef %26, i32 noundef %27)
  call void @Vec_IntPush(ptr noundef %21, i32 noundef %28)
  br label %29

29:                                               ; preds = %20
  %30 = load i32, ptr %7, align 4, !tbaa !10
  %31 = add nsw i32 %30, 1
  store i32 %31, ptr %7, align 4, !tbaa !10
  br label %15, !llvm.loop !241

32:                                               ; preds = %15
  call void @llvm.lifetime.end.p0(i64 4, ptr %8) #14
  call void @llvm.lifetime.end.p0(i64 4, ptr %7) #14
  ret void
}