; Function Attrs: nounwind uwtable
define void @Gia_ManDeriveCounts(ptr noundef readonly captures(none) %0, i32 noundef %1, ptr noundef captures(none) initializes((4, 8)) %2) local_unnamed_addr #0 {
  %4 = getelementptr i8, ptr %0, i64 4
  %.val10 = load i32, ptr %4, align 4, !tbaa !81
  %5 = sdiv i32 %.val10, %1
  %6 = getelementptr inbounds nuw i8, ptr %2, i64 4
  store i32 0, ptr %6, align 4, !tbaa !28
  %7 = icmp sgt i32 %5, 1
  br i1 %7, label %.lr.ph, label %._crit_edge

.lr.ph:                                           ; preds = %3
  %8 = and i32 %5, 2147483646
  %9 = getelementptr i8, ptr %0, i64 8
  %10 = icmp sgt i32 %1, 0
  %wide.trip.count.i = zext i32 %1 to i64
  %.phi.trans.insert.i = getelementptr inbounds nuw i8, ptr %2, i64 8
  %smax14 = tail call i32 @llvm.smax.i32(i32 %8, i32 1)
  br i1 %10, label %.lr.ph.preheader.i.us.preheader, label %Abc_TtCountOnesVec.exit

.lr.ph.preheader.i.us.preheader:                  ; preds = %.lr.ph
  %wide.trip.count = zext nneg i32 %smax14 to i64
  br label %.lr.ph.preheader.i.us

.lr.ph.preheader.i.us:                            ; preds = %.lr.ph.preheader.i.us.preheader, %Vec_IntPush.exit.us
  %indvars.iv = phi i64 [ 0, %.lr.ph.preheader.i.us.preheader ], [ %indvars.iv.next, %Vec_IntPush.exit.us ]
  %11 = mul nuw nsw i64 %indvars.iv, %wide.trip.count.i
  %.val.us = load ptr, ptr %9, align 8, !tbaa !84
  %12 = getelementptr inbounds nuw i64, ptr %.val.us, i64 %11
  br label %.lr.ph.i.us

.lr.ph.i.us:                                      ; preds = %Abc_TtCountOnes2.exit.i.us, %.lr.ph.preheader.i.us
  %indvars.iv.i.us = phi i64 [ 0, %.lr.ph.preheader.i.us ], [ %indvars.iv.next.i.us, %Abc_TtCountOnes2.exit.i.us ]
  %.08.i.us = phi i32 [ 0, %.lr.ph.preheader.i.us ], [ %35, %Abc_TtCountOnes2.exit.i.us ]
  %13 = getelementptr inbounds nuw i64, ptr %12, i64 %indvars.iv.i.us
  %14 = load i64, ptr %13, align 8, !tbaa !94
  %.not.i.i.us = icmp eq i64 %14, 0
  br i1 %.not.i.i.us, label %Abc_TtCountOnes2.exit.i.us, label %15

15:                                               ; preds = %.lr.ph.i.us
  %16 = lshr i64 %14, 1
  %17 = and i64 %16, 6148914691236517205
  %18 = sub i64 %14, %17
  %19 = and i64 %18, 3689348814741910323
  %20 = lshr i64 %18, 2
  %21 = and i64 %20, 3689348814741910323
  %22 = add nuw nsw i64 %21, %19
  %23 = lshr i64 %22, 4
  %24 = add nuw nsw i64 %23, %22
  %25 = and i64 %24, 1085102592571150095
  %26 = lshr i64 %25, 8
  %27 = add nuw nsw i64 %26, %25
  %28 = lshr i64 %27, 16
  %29 = add nuw nsw i64 %28, %27
  %30 = lshr i64 %29, 32
  %31 = add nuw nsw i64 %30, %29
  %32 = trunc i64 %31 to i32
  %33 = and i32 %32, 255
  br label %Abc_TtCountOnes2.exit.i.us

Abc_TtCountOnes2.exit.i.us:                       ; preds = %15, %.lr.ph.i.us
  %34 = phi i32 [ %33, %15 ], [ 0, %.lr.ph.i.us ]
  %35 = add nuw nsw i32 %34, %.08.i.us
  %indvars.iv.next.i.us = add nuw nsw i64 %indvars.iv.i.us, 1
  %exitcond.not.i.us = icmp eq i64 %indvars.iv.next.i.us, %wide.trip.count.i
  br i1 %exitcond.not.i.us, label %Abc_TtCountOnesVec.exit.loopexit.us, label %.lr.ph.i.us, !llvm.loop !141

.Vec_IntGrow.exit10_crit_edge.i.us:               ; preds = %Abc_TtCountOnesVec.exit.loopexit.us
  %.pre.i.us = load ptr, ptr %.phi.trans.insert.i, align 8, !tbaa !30
  br label %Vec_IntPush.exit.us

36:                                               ; preds = %Abc_TtCountOnesVec.exit.loopexit.us
  %37 = icmp slt i32 %61, 16
  br i1 %37, label %49, label %38

38:                                               ; preds = %36
  %39 = shl nuw nsw i32 %61, 1
  %40 = load ptr, ptr %.phi.trans.insert.i, align 8, !tbaa !30
  %.not9.i9.i.us = icmp eq ptr %40, null
  %41 = zext nneg i32 %39 to i64
  %42 = shl nuw nsw i64 %41, 2
  br i1 %.not9.i9.i.us, label %45, label %43

43:                                               ; preds = %38
  %44 = tail call ptr @realloc(ptr noundef nonnull %40, i64 noundef %42) #30
  br label %47

45:                                               ; preds = %38
  %46 = tail call noalias ptr @malloc(i64 noundef %42) #31
  br label %47

47:                                               ; preds = %45, %43
  %48 = phi ptr [ %44, %43 ], [ %46, %45 ]
  store ptr %48, ptr %.phi.trans.insert.i, align 8, !tbaa !30
  store i32 %39, ptr %2, align 8, !tbaa !29
  br label %Vec_IntPush.exit.us

49:                                               ; preds = %36
  %50 = load ptr, ptr %.phi.trans.insert.i, align 8, !tbaa !30
  %.not9.i.i.us = icmp eq ptr %50, null
  br i1 %.not9.i.i.us, label %53, label %51

51:                                               ; preds = %49
  %52 = tail call dereferenceable_or_null(64) ptr @realloc(ptr noundef nonnull %50, i64 noundef 64) #30
  br label %Vec_IntGrow.exit.i.us

53:                                               ; preds = %49
  %54 = tail call noalias dereferenceable_or_null(64) ptr @malloc(i64 noundef 64) #31
  br label %Vec_IntGrow.exit.i.us

Vec_IntGrow.exit.i.us:                            ; preds = %53, %51
  %55 = phi ptr [ %52, %51 ], [ %54, %53 ]
  store ptr %55, ptr %.phi.trans.insert.i, align 8, !tbaa !30
  store i32 16, ptr %2, align 8, !tbaa !29
  br label %Vec_IntPush.exit.us

Vec_IntPush.exit.us:                              ; preds = %Vec_IntGrow.exit.i.us, %47, %.Vec_IntGrow.exit10_crit_edge.i.us
  %56 = phi ptr [ %.pre.i.us, %.Vec_IntGrow.exit10_crit_edge.i.us ], [ %48, %47 ], [ %55, %Vec_IntGrow.exit.i.us ]
  %57 = load i32, ptr %6, align 4, !tbaa !28
  %58 = add nsw i32 %57, 1
  store i32 %58, ptr %6, align 4, !tbaa !28
  %59 = sext i32 %57 to i64
  %60 = getelementptr inbounds i32, ptr %56, i64 %59
  store i32 %35, ptr %60, align 4, !tbaa !31
  %indvars.iv.next = add nuw nsw i64 %indvars.iv, 1
  %exitcond15.not = icmp eq i64 %indvars.iv.next, %wide.trip.count
  br i1 %exitcond15.not, label %._crit_edge, label %.lr.ph.preheader.i.us, !llvm.loop !217

Abc_TtCountOnesVec.exit.loopexit.us:              ; preds = %Abc_TtCountOnes2.exit.i.us
  %61 = load i32, ptr %6, align 4, !tbaa !28
  %62 = load i32, ptr %2, align 8, !tbaa !29
  %63 = icmp eq i32 %61, %62
  br i1 %63, label %36, label %.Vec_IntGrow.exit10_crit_edge.i.us

Abc_TtCountOnesVec.exit:                          ; preds = %.lr.ph, %Vec_IntPush.exit
  %.011 = phi i32 [ %92, %Vec_IntPush.exit ], [ 0, %.lr.ph ]
  %64 = load i32, ptr %6, align 4, !tbaa !28
  %65 = load i32, ptr %2, align 8, !tbaa !29
  %66 = icmp eq i32 %64, %65
  br i1 %66, label %67, label %.Vec_IntGrow.exit10_crit_edge.i

.Vec_IntGrow.exit10_crit_edge.i:                  ; preds = %Abc_TtCountOnesVec.exit
  %.pre.i = load ptr, ptr %.phi.trans.insert.i, align 8, !tbaa !30
  br label %Vec_IntPush.exit

67:                                               ; preds = %Abc_TtCountOnesVec.exit
  %68 = icmp slt i32 %64, 16
  br i1 %68, label %69, label %76

69:                                               ; preds = %67
  %70 = load ptr, ptr %.phi.trans.insert.i, align 8, !tbaa !30
  %.not9.i.i = icmp eq ptr %70, null
  br i1 %.not9.i.i, label %73, label %71

71:                                               ; preds = %69
  %72 = tail call dereferenceable_or_null(64) ptr @realloc(ptr noundef nonnull %70, i64 noundef 64) #30
  br label %Vec_IntGrow.exit.i

73:                                               ; preds = %69
  %74 = tail call noalias dereferenceable_or_null(64) ptr @malloc(i64 noundef 64) #31
  br label %Vec_IntGrow.exit.i

Vec_IntGrow.exit.i:                               ; preds = %73, %71
  %75 = phi ptr [ %72, %71 ], [ %74, %73 ]
  store ptr %75, ptr %.phi.trans.insert.i, align 8, !tbaa !30
  store i32 16, ptr %2, align 8, !tbaa !29
  br label %Vec_IntPush.exit

76:                                               ; preds = %67
  %77 = shl nuw nsw i32 %64, 1
  %78 = load ptr, ptr %.phi.trans.insert.i, align 8, !tbaa !30
  %.not9.i9.i = icmp eq ptr %78, null
  %79 = zext nneg i32 %77 to i64
  %80 = shl nuw nsw i64 %79, 2
  br i1 %.not9.i9.i, label %83, label %81

81:                                               ; preds = %76
  %82 = tail call ptr @realloc(ptr noundef nonnull %78, i64 noundef %80) #30
  br label %85

83:                                               ; preds = %76
  %84 = tail call noalias ptr @malloc(i64 noundef %80) #31
  br label %85

85:                                               ; preds = %83, %81
  %86 = phi ptr [ %82, %81 ], [ %84, %83 ]
  store ptr %86, ptr %.phi.trans.insert.i, align 8, !tbaa !30
  store i32 %77, ptr %2, align 8, !tbaa !29
  br label %Vec_IntPush.exit

Vec_IntPush.exit:                                 ; preds = %.Vec_IntGrow.exit10_crit_edge.i, %Vec_IntGrow.exit.i, %85
  %87 = phi ptr [ %.pre.i, %.Vec_IntGrow.exit10_crit_edge.i ], [ %86, %85 ], [ %75, %Vec_IntGrow.exit.i ]
  %88 = load i32, ptr %6, align 4, !tbaa !28
  %89 = add nsw i32 %88, 1
  store i32 %89, ptr %6, align 4, !tbaa !28
  %90 = sext i32 %88 to i64
  %91 = getelementptr inbounds i32, ptr %87, i64 %90
  store i32 0, ptr %91, align 4, !tbaa !31
  %92 = add nuw nsw i32 %.011, 1
  %exitcond.not = icmp eq i32 %92, %smax14
  br i1 %exitcond.not, label %._crit_edge, label %Abc_TtCountOnesVec.exit, !llvm.loop !217

._crit_edge:                                      ; preds = %Vec_IntPush.exit, %Vec_IntPush.exit.us, %3
  ret void
}